Certificate:
    Data:
        Version: 1 (0x0)
        Serial Number: 4660 (0x1234)
    Signature Algorithm: md5WithRSAEncryption
        Issuer: C=GE, ST=Hessen, L=Hanauu, O=Bra\xC3\x84\xC2\x87a Grimm, OU=bajke za djecu, CN=grimm.edu/emailAddress=bajke@grimm.edu
        Validity
            Not Before: Jan 13 22:36:26 2022 GMT
            Not After : Jan 13 22:36:26 2023 GMT
        Subject: C=HR, ST=planine i doline, L=\xC3\x84\xC2\x8Deka, O=divlja\xC3\x84\xC2\x8D, OU=veprovina, CN=Mirko/emailAddress=lovac@bajka.hr
        Subject Public Key Info:
            Public Key Algorithm: rsaEncryption
                Public-Key: (2048 bit)
                Modulus:
                    00:b3:f1:d5:cb:60:bb:11:05:43:18:38:5b:be:48:
                    d9:c7:b2:ef:bc:fc:a0:93:29:ce:be:52:09:c8:11:
                    31:ba:4d:00:f3:17:0d:f6:32:48:ee:3e:bc:6f:72:
                    ce:ed:62:82:d4:6d:8e:32:23:a8:be:f1:9a:8d:7c:
                    a0:74:8a:33:7f:2d:a9:07:27:c8:3d:b9:df:e8:a6:
                    2a:14:5b:6c:6c:3e:48:96:61:af:9c:4a:2c:aa:79:
                    1e:00:e8:b5:09:55:c5:b3:eb:ca:a5:d8:66:8d:da:
                    6c:33:21:8c:b8:ef:dc:a9:d7:1d:6d:c6:03:1b:59:
                    41:d9:22:fa:75:b7:68:5c:81:a2:a3:b5:d5:62:e3:
                    2b:2b:f3:de:94:95:b7:b4:11:de:77:b6:a3:2d:ac:
                    63:13:01:41:1d:60:e1:f4:20:87:b2:ca:0d:c6:47:
                    ff:d7:de:bc:58:84:ab:20:27:3f:c5:2c:63:5b:e8:
                    c5:1f:57:a9:6a:e8:74:2e:1e:3c:56:6f:45:a5:e4:
                    06:4f:33:60:69:a0:cb:30:f3:f6:14:e5:48:27:56:
                    f5:57:6a:66:c9:6f:96:c4:8e:94:c6:3e:67:ff:15:
                    2c:37:0b:27:b8:f9:45:0f:8b:3b:3e:b2:d1:25:7b:
                    c7:5b:99:9f:6b:7f:68:69:d5:50:e1:0a:5b:45:61:
                    42:71
                Exponent: 65537 (0x10001)
    Signature Algorithm: md5WithRSAEncryption
         62:80:81:10:b9:f1:c3:78:4e:3f:6c:d7:2e:6a:67:03:33:be:
         ea:6c:27:ee:e5:60:fe:a5:ec:dd:c8:3b:b3:7d:33:72:b7:42:
         fa:45:4b:46:d6:1b:04:0c:7a:cf:d4:b8:bf:0e:e6:bf:13:da:
         80:ba:ef:23:5b:0c:43:09:2d:85:34:4d:43:1e:36:4b:e0:7b:
         de:ab:b2:ab:cc:03:55:1f:65:d1:58:93:f7:d6:b1:ab:ef:75:
         47:34:fa:5b:17:9f:04:7c:27:0b:2a:17:50:63:12:03:7d:b2:
         95:05:66:c0:30:61:a0:61:a8:aa:3a:c5:64:47:44:0c:c1:26:
         65:48:6f:d3:86:6c:0b:c7:7f:78:d3:08:4f:d2:a2:6e:ce:65:
         88:ff:5c:9f:1e:3d:87:9e:7d:f7:33:f5:f7:4a:27:31:ec:f6:
         76:01:d1:49:58:8d:44:01:dc:52:20:a2:7d:a0:15:ca:87:46:
         a5:f0:ca:47:88:a2:2e:eb:1b:19:56:fb:81:fe:a7:0f:b9:cd:
         69:60:87:45:a9:08:82:48:45:57:dc:c9:20:b0:0d:03:be:9b:
         0a:5e:1c:08:e3:dc:5f:68:e2:7a:72:79:3b:d5:53:ca:e1:fa:
         3d:10:60:d7:d0:8f:14:ac:b7:66:68:1c:9d:98:57:27:47:e0:
         24:e9:e5:c9
-----BEGIN CERTIFICATE-----
MIIDnjCCAoYCAhI0MA0GCSqGSIb3DQEBBAUAMIGVMQswCQYDVQQGEwJHRTEPMA0G
A1UECAwGSGVzc2VuMQ8wDQYDVQQHDAZIYW5hdXUxFzAVBgNVBAoMDkJyYcOEwodh
IEdyaW1tMRcwFQYDVQQLDA5iYWprZSB6YSBkamVjdTESMBAGA1UEAwwJZ3JpbW0u
ZWR1MR4wHAYJKoZIhvcNAQkBFg9iYWprZUBncmltbS5lZHUwHhcNMjIwMTEzMjIz
NjI2WhcNMjMwMTEzMjIzNjI2WjCBkjELMAkGA1UEBhMCSFIxGTAXBgNVBAgMEHBs
YW5pbmUgaSBkb2xpbmUxEDAOBgNVBAcMB8OEwo1la2ExEzARBgNVBAoMCmRpdmxq
YcOEwo0xEjAQBgNVBAsMCXZlcHJvdmluYTEOMAwGA1UEAwwFTWlya28xHTAbBgkq
hkiG9w0BCQEWDmxvdmFjQGJhamthLmhyMIIBIjANBgkqhkiG9w0BAQEFAAOCAQ8A
MIIBCgKCAQEAs/HVy2C7EQVDGDhbvkjZx7LvvPygkynOvlIJyBExuk0A8xcN9jJI
7j68b3LO7WKC1G2OMiOovvGajXygdIozfy2pByfIPbnf6KYqFFtsbD5IlmGvnEos
qnkeAOi1CVXFs+vKpdhmjdpsMyGMuO/cqdcdbcYDG1lB2SL6dbdoXIGio7XVYuMr
K/PelJW3tBHed7ajLaxjEwFBHWDh9CCHssoNxkf/1968WISrICc/xSxjW+jFH1ep
auh0Lh48Vm9FpeQGTzNgaaDLMPP2FOVIJ1b1V2pmyW+WxI6Uxj5n/xUsNwsnuPlF
D4s7PrLRJXvHW5mfa39oadVQ4QpbRWFCcQIDAQABMA0GCSqGSIb3DQEBBAUAA4IB
AQBigIEQufHDeE4/bNcuamcDM77qbCfu5WD+pezdyDuzfTNyt0L6RUtG1hsEDHrP
1Li/Dua/E9qAuu8jWwxDCS2FNE1DHjZL4Hveq7KrzANVH2XRWJP31rGr73VHNPpb
F58EfCcLKhdQYxIDfbKVBWbAMGGgYaiqOsVkR0QMwSZlSG/ThmwLx3940whP0qJu
zmWI/1yfHj2Hnn33M/X3Sicx7PZ2AdFJWI1EAdxSIKJ9oBXKh0al8MpHiKIu6xsZ
VvuB/qcPuc1pYIdFqQiCSEVX3MkgsA0DvpsKXhwI49xfaOJ6cnk71VPK4fo9EGDX
0I8UrLdmaBydmFcnR+Ak6eXJ
-----END CERTIFICATE-----
